; Function Attrs: nounwind sspstrong uwtable
define internal zeroext i1 @mirror_drained_poll(ptr noundef %job) #0 {
for.body.us:
  %0 = load atomic i64, ptr @qemu_mutex_lock_func monotonic, align 8
  %1 = inttoptr i64 %0 to ptr
  tail call void %1(ptr noundef nonnull @job_mutex, ptr noundef nonnull @.str.44, i32 noundef 122) #12
  %in_drain = getelementptr inbounds nuw i8, ptr %job, i64 769
  %paused = getelementptr inbounds nuw i8, ptr %job, i64 181
  %2 = load i8, ptr %paused, align 1
  %tobool2.us = trunc i8 %2 to i1
  br i1 %tobool2.us, label %qemu_lockable_auto_unlock.exit.us, label %land.lhs.true.us

land.lhs.true.us:                                 ; preds = %for.body.us
  %call4.us = tail call zeroext i1 @job_is_cancelled_locked(ptr noundef nonnull %job) #12
  br i1 %call4.us, label %qemu_lockable_auto_unlock.exit.us, label %land.lhs.true5.us

land.lhs.true5.us:                                ; preds = %land.lhs.true.us
  %3 = load i8, ptr %in_drain, align 1
  %tobool6.us = trunc i8 %3 to i1
  br i1 %tobool6.us, label %qemu_lockable_auto_unlock.exit.us, label %glib_autoptr_cleanup_QemuLockable.exit

qemu_lockable_auto_unlock.exit.us:                ; preds = %land.lhs.true5.us, %land.lhs.true.us, %for.body.us
  tail call void @qemu_mutex_unlock_impl(ptr noundef nonnull @job_mutex, ptr noundef nonnull @.str.44, i32 noundef 132) #12
  %in_flight = getelementptr inbounds nuw i8, ptr %job, i64 704
  %4 = load i32, ptr %in_flight, align 8
  %tobool7 = icmp ne i32 %4, 0
  br label %return

glib_autoptr_cleanup_QemuLockable.exit:           ; preds = %land.lhs.true5.us
  tail call void @qemu_mutex_unlock_impl(ptr noundef nonnull @job_mutex, ptr noundef nonnull @.str.44, i32 noundef 132) #12
  br label %return

return:                                           ; preds = %glib_autoptr_cleanup_QemuLockable.exit, %qemu_lockable_auto_unlock.exit.us
  %retval.1 = phi i1 [ true, %glib_autoptr_cleanup_QemuLockable.exit ], [ %tobool7, %qemu_lockable_auto_unlock.exit.us ]
  ret i1 %retval.1
}